target datalayout = "e-m:e-p270:32:32-p271:32:32-p272:64:64-i64:64-i128:128-f80:128-n8:16:32:64-S128"
target triple = "x86_64-pc-linux-gnu"

%struct.ffio = type { ptr, ptr, ptr, ptr, ptr, i64, i64, i64, i64, i64, i64, i64, i8 }

; Function Attrs: mustprogress nounwind uwtable
define internal noundef ptr @_ZL6at_tagP4ffio(ptr noundef %0) #0 {
  %2 = alloca ptr, align 8
  %3 = alloca ptr, align 8
  %4 = alloca i64, align 8
  store ptr %0, ptr %3, align 8
  store i64 0, ptr %4, align 8
  br label %5

5:                                                ; preds = %38, %1
  %6 = load i64, ptr %4, align 8
  %7 = load ptr, ptr %3, align 8
  %8 = getelementptr inbounds %struct.ffio, ptr %7, i32 0, i32 5
  %9 = load i64, ptr %8, align 8
  %10 = icmp ult i64 %6, %9
  br i1 %10, label %11, label %41

11:                                               ; preds = %5
  %12 = load ptr, ptr %3, align 8
  %13 = getelementptr inbounds %struct.ffio, ptr %12, i32 0, i32 4
  %14 = load ptr, ptr %13, align 8
  %15 = load ptr, ptr %3, align 8
  %16 = getelementptr inbounds %struct.ffio, ptr %15, i32 0, i32 1
  %17 = load ptr, ptr %16, align 8
  %18 = load i64, ptr %4, align 8
  %19 = getelementptr inbounds ptr, ptr %17, i64 %18
  %20 = load ptr, ptr %19, align 8
  %21 = load ptr, ptr %3, align 8
  %22 = getelementptr inbounds %struct.ffio, ptr %21, i32 0, i32 1
  %23 = load ptr, ptr %22, align 8
  %24 = load i64, ptr %4, align 8
  %25 = getelementptr inbounds ptr, ptr %23, i64 %24
  %26 = load ptr, ptr %25, align 8
  %27 = call i64 @strlen(ptr noundef %26) #14
  %28 = call i32 @strncmp(ptr noundef %14, ptr noundef %20, i64 noundef %27) #14
  %29 = icmp eq i32 %28, 0
  br i1 %29, label %30, label %37

30:                                               ; preds = %11
  %31 = load ptr, ptr %3, align 8
  %32 = getelementptr inbounds %struct.ffio, ptr %31, i32 0, i32 1
  %33 = load ptr, ptr %32, align 8
  %34 = load i64, ptr %4, align 8
  %35 = getelementptr inbounds ptr, ptr %33, i64 %34
  %36 = load ptr, ptr %35, align 8
  store ptr %36, ptr %2, align 8
  br label %42

37:                                               ; preds = %11
  br label %38

38:                                               ; preds = %37
  %39 = load i64, ptr %4, align 8
  %40 = add i64 %39, 1
  store i64 %40, ptr %4, align 8
  br label %5, !llvm.loop !26

41:                                               ; preds = %5
  store ptr null, ptr %2, align 8
  br label %42

42:                                               ; preds = %41, %30
  %43 = load ptr, ptr %2, align 8
  ret ptr %43
}

; Function Attrs: mustprogress nounwind uwtable
define internal noundef i32 @_ZL11append_argsP4ffio(ptr noundef %0) #0 {
  %2 = alloca i32, align 4
  %3 = alloca ptr, align 8
  %4 = alloca i64, align 8
  %5 = alloca i64, align 8
  %6 = alloca i64, align 8
  %7 = alloca ptr, align 8
  %8 = alloca ptr, align 8
  store ptr %0, ptr %3, align 8
  store i64 0, ptr %4, align 8
  %9 = load ptr, ptr %3, align 8
  %10 = getelementptr inbounds %struct.ffio, ptr %9, i32 0, i32 4
  %11 = load ptr, ptr %10, align 8
  %12 = call i64 @strlen(ptr noundef %11) #14
  store i64 %12, ptr %5, align 8
  %13 = load ptr, ptr %3, align 8
  %14 = getelementptr inbounds %struct.ffio, ptr %13, i32 0, i32 3
  %15 = load ptr, ptr %14, align 8
  %16 = call i64 @strlen(ptr noundef %15) #14
  store i64 %16, ptr %6, align 8
  %17 = load ptr, ptr %3, align 8
  %18 = call noundef ptr @_ZL6at_tagP4ffio(ptr noundef %17)
  store ptr %18, ptr %7, align 8
  %19 = load ptr, ptr %7, align 8
  %20 = icmp ne ptr %19, null
  br i1 %20, label %21, label %24

21:                                               ; preds = %1
  %22 = load ptr, ptr %7, align 8
  %23 = call i64 @strlen(ptr noundef %22) #14
  store i64 %23, ptr %4, align 8
  br label %24

24:                                               ; preds = %21, %1
  %25 = load ptr, ptr %3, align 8
  %26 = getelementptr inbounds %struct.ffio, ptr %25, i32 0, i32 6
  %27 = load i64, ptr %26, align 8
  %28 = load i64, ptr %6, align 8
  %29 = load i64, ptr %5, align 8
  %30 = add i64 %28, %29
  %31 = load i64, ptr %4, align 8
  %32 = sub i64 %30, %31
  %33 = add i64 %32, 2
  %34 = icmp ult i64 %27, %33
  br i1 %34, label %35, label %57

35:                                               ; preds = %24
  %36 = load ptr, ptr %3, align 8
  %37 = getelementptr inbounds %struct.ffio, ptr %36, i32 0, i32 3
  %38 = load ptr, ptr %37, align 8
  %39 = load ptr, ptr %3, align 8
  %40 = getelementptr inbounds %struct.ffio, ptr %39, i32 0, i32 6
  %41 = load i64, ptr %40, align 8
  %42 = mul i64 2, %41
  %43 = call ptr @realloc(ptr noundef %38, i64 noundef %42) #17
  store ptr %43, ptr %8, align 8
  %44 = load ptr, ptr %8, align 8
  %45 = icmp eq ptr null, %44
  br i1 %45, label %46, label %47

46:                                               ; preds = %35
  store i32 0, ptr %2, align 4
  br label %79

47:                                               ; preds = %35
  %48 = load ptr, ptr %8, align 8
  %49 = load ptr, ptr %3, align 8
  %50 = getelementptr inbounds %struct.ffio, ptr %49, i32 0, i32 3
  store ptr %48, ptr %50, align 8
  %51 = load ptr, ptr %3, align 8
  %52 = getelementptr inbounds %struct.ffio, ptr %51, i32 0, i32 6
  %53 = load i64, ptr %52, align 8
  %54 = mul i64 2, %53
  %55 = load ptr, ptr %3, align 8
  %56 = getelementptr inbounds %struct.ffio, ptr %55, i32 0, i32 6
  store i64 %54, ptr %56, align 8
  br label %57

57:                                               ; preds = %47, %24
  %58 = load ptr, ptr %3, align 8
  %59 = getelementptr inbounds %struct.ffio, ptr %58, i32 0, i32 3
  %60 = load ptr, ptr %59, align 8
  %61 = load i64, ptr %6, align 8
  %62 = getelementptr inbounds i8, ptr %60, i64 %61
  store i8 32, ptr %62, align 1
  %63 = load ptr, ptr %3, align 8
  %64 = getelementptr inbounds %struct.ffio, ptr %63, i32 0, i32 3
  %65 = load ptr, ptr %64, align 8
  %66 = load i64, ptr %6, align 8
  %67 = getelementptr inbounds i8, ptr %65, i64 %66
  %68 = getelementptr inbounds i8, ptr %67, i64 1
  %69 = load ptr, ptr %3, align 8
  %70 = getelementptr inbounds %struct.ffio, ptr %69, i32 0, i32 4
  %71 = load ptr, ptr %70, align 8
  %72 = load i64, ptr %4, align 8
  %73 = getelementptr inbounds i8, ptr %71, i64 %72
  %74 = call ptr @strcpy(ptr noundef %68, ptr noundef %73) #13
  %75 = load ptr, ptr %3, align 8
  %76 = getelementptr inbounds %struct.ffio, ptr %75, i32 0, i32 4
  %77 = load ptr, ptr %76, align 8
  %78 = getelementptr inbounds i8, ptr %77, i64 0
  store i8 0, ptr %78, align 1
  store i32 1, ptr %2, align 4
  br label %79

79:                                               ; preds = %57, %46
  %80 = load i32, ptr %2, align 4
  ret i32 %80
}