; Function Attrs: mustprogress norecurse nounwind uwtable
define internal fastcc void @_ZL11append_argsP4ffio(ptr nocapture noundef %0) unnamed_addr #16 {
  %2 = getelementptr inbounds i8, ptr %0, i64 32
  %3 = load ptr, ptr %2, align 8
  %4 = tail call i64 @strlen(ptr noundef nonnull dereferenceable(1) %3) #27
  %5 = getelementptr inbounds i8, ptr %0, i64 24
  %6 = load ptr, ptr %5, align 8
  %7 = tail call i64 @strlen(ptr noundef nonnull dereferenceable(1) %6) #27
  %8 = getelementptr inbounds i8, ptr %0, i64 40
  %9 = load i64, ptr %8, align 8
  %.not.i = icmp eq i64 %9, 0
  br i1 %.not.i, label %_ZL6at_tagP4ffio.exit.thread, label %.lr.ph.i

.lr.ph.i:                                         ; preds = %1
  %10 = getelementptr inbounds i8, ptr %0, i64 8
  %11 = load ptr, ptr %10, align 8
  br label %14

12:                                               ; preds = %14
  %13 = add nuw i64 %.011.i, 1
  %exitcond.not.i = icmp eq i64 %13, %9
  br i1 %exitcond.not.i, label %_ZL6at_tagP4ffio.exit.thread, label %14, !llvm.loop !18

14:                                               ; preds = %12, %.lr.ph.i
  %.011.i = phi i64 [ 0, %.lr.ph.i ], [ %13, %12 ]
  %15 = getelementptr inbounds ptr, ptr %11, i64 %.011.i
  %16 = load ptr, ptr %15, align 8
  %17 = tail call i64 @strlen(ptr noundef nonnull dereferenceable(1) %16) #27
  %18 = tail call i32 @strncmp(ptr noundef %3, ptr noundef %16, i64 noundef %17) #27
  %19 = icmp eq i32 %18, 0
  br i1 %19, label %_ZL6at_tagP4ffio.exit, label %12

_ZL6at_tagP4ffio.exit:                            ; preds = %14
  %.not = icmp eq ptr %16, null
  %spec.select = select i1 %.not, i64 0, i64 %17
  br label %_ZL6at_tagP4ffio.exit.thread

_ZL6at_tagP4ffio.exit.thread:                     ; preds = %12, %_ZL6at_tagP4ffio.exit, %1
  %.023 = phi i64 [ 0, %1 ], [ %spec.select, %_ZL6at_tagP4ffio.exit ], [ 0, %12 ]
  %20 = getelementptr inbounds i8, ptr %0, i64 48
  %21 = load i64, ptr %20, align 8
  %22 = add i64 %4, 2
  %23 = add i64 %22, %7
  %24 = sub i64 %23, %.023
  %25 = icmp ult i64 %21, %24
  br i1 %25, label %26, label %33

26:                                               ; preds = %_ZL6at_tagP4ffio.exit.thread
  %27 = shl i64 %21, 1
  %28 = tail call ptr @realloc(ptr noundef %6, i64 noundef %27) #32
  %29 = icmp eq ptr %28, null
  br i1 %29, label %43, label %30

30:                                               ; preds = %26
  store ptr %28, ptr %5, align 8
  %31 = load i64, ptr %20, align 8
  %32 = shl i64 %31, 1
  store i64 %32, ptr %20, align 8
  br label %33

33:                                               ; preds = %30, %_ZL6at_tagP4ffio.exit.thread
  %34 = phi ptr [ %28, %30 ], [ %6, %_ZL6at_tagP4ffio.exit.thread ]
  %35 = getelementptr inbounds i8, ptr %34, i64 %7
  store i8 32, ptr %35, align 1
  %36 = load ptr, ptr %5, align 8
  %37 = getelementptr inbounds i8, ptr %36, i64 %7
  %38 = getelementptr inbounds i8, ptr %37, i64 1
  %39 = load ptr, ptr %2, align 8
  %40 = getelementptr inbounds i8, ptr %39, i64 %.023
  %41 = tail call ptr @strcpy(ptr noundef nonnull dereferenceable(1) %38, ptr noundef nonnull dereferenceable(1) %40) #26
  %42 = load ptr, ptr %2, align 8
  store i8 0, ptr %42, align 1
  br label %43

43:                                               ; preds = %26, %33
  ret void
}